; ModuleID = '20/1096.c'
source_filename = "20/1096.c"
target datalayout = "e-m:e-p270:32:32-p271:32:32-p272:64:64-i64:64-f80:128-n8:16:32:64-S128"
target triple = "x86_64-pc-linux-gnu"

@.str = private unnamed_addr constant [5 x i8] c"%s%s\00", align 1
@.str.1 = private unnamed_addr constant [3 x i8] c"%s\00", align 1
@.str.2 = private unnamed_addr constant [4 x i8] c"%s\0A\00", align 1

; Function Attrs: noinline nounwind uwtable
define dso_local i32 @main() #0 {
  %1 = alloca i32, align 4
  %2 = alloca [20 x i8], align 16
  %3 = alloca [20 x i8], align 16
  %4 = alloca [20 x i8], align 16
  %5 = alloca i8*, align 8
  %6 = alloca i8*, align 8
  %7 = alloca i32, align 4
  %8 = alloca i32, align 4
  store i32 0, i32* %1, align 4
  %9 = bitcast [20 x i8]* %2 to i8*
  call void @llvm.memset.p0i8.i64(i8* align 16 %9, i8 0, i64 20, i1 false)
  %10 = bitcast [20 x i8]* %3 to i8*
  call void @llvm.memset.p0i8.i64(i8* align 16 %10, i8 0, i64 20, i1 false)
  br label %11

11:                                               ; preds = %50, %0
  %12 = getelementptr inbounds [20 x i8], [20 x i8]* %2, i64 0, i64 0
  %13 = getelementptr inbounds [20 x i8], [20 x i8]* %3, i64 0, i64 0
  %14 = call i32 (i8*, ...) @__isoc99_scanf(i8* getelementptr inbounds ([5 x i8], [5 x i8]* @.str, i64 0, i64 0), i8* %12, i8* %13)
  %15 = icmp ne i32 %14, -1
  br i1 %15, label %16, label %64

16:                                               ; preds = %11
  %17 = bitcast [20 x i8]* %4 to i8*
  call void @llvm.memset.p0i8.i64(i8* align 16 %17, i8 0, i64 20, i1 false)
  store i32 0, i32* %7, align 4
  store i32 0, i32* %8, align 4
  %18 = getelementptr inbounds [20 x i8], [20 x i8]* %2, i64 0, i64 0
  store i8* %18, i8** %5, align 8
  %19 = getelementptr inbounds [20 x i8], [20 x i8]* %2, i64 0, i64 0
  store i8* %19, i8** %6, align 8
  br label %20

20:                                               ; preds = %47, %16
  %21 = load i8*, i8** %5, align 8
  %22 = getelementptr inbounds [20 x i8], [20 x i8]* %2, i64 0, i64 0
  %23 = ptrtoint i8* %21 to i64
  %24 = ptrtoint i8* %22 to i64
  %25 = sub i64 %23, %24
  %26 = getelementptr inbounds [20 x i8], [20 x i8]* %2, i64 0, i64 0
  %27 = call i64 @strlen(i8* %26) #5
  %28 = icmp ult i64 %25, %27
  br i1 %28, label %29, label %50

29:                                               ; preds = %20
  %30 = load i8*, i8** %5, align 8
  %31 = load i8, i8* %30, align 1
  %32 = sext i8 %31 to i32
  %33 = load i32, i32* %8, align 4
  %34 = icmp sgt i32 %32, %33
  br i1 %34, label %35, label %46

35:                                               ; preds = %29
  %36 = load i8*, i8** %5, align 8
  %37 = load i8, i8* %36, align 1
  %38 = sext i8 %37 to i32
  store i32 %38, i32* %8, align 4
  %39 = load i8*, i8** %5, align 8
  store i8* %39, i8** %6, align 8
  %40 = load i8*, i8** %6, align 8
  %41 = getelementptr inbounds [20 x i8], [20 x i8]* %2, i64 0, i64 0
  %42 = ptrtoint i8* %40 to i64
  %43 = ptrtoint i8* %41 to i64
  %44 = sub i64 %42, %43
  %45 = trunc i64 %44 to i32
  store i32 %45, i32* %7, align 4
  br label %46

46:                                               ; preds = %35, %29
  br label %47

47:                                               ; preds = %46
  %48 = load i8*, i8** %5, align 8
  %49 = getelementptr inbounds i8, i8* %48, i32 1
  store i8* %49, i8** %5, align 8
  br label %20

50:                                               ; preds = %20
  %51 = getelementptr inbounds [20 x i8], [20 x i8]* %4, i64 0, i64 0
  %52 = getelementptr inbounds [20 x i8], [20 x i8]* %2, i64 0, i64 0
  %53 = load i32, i32* %7, align 4
  %54 = add nsw i32 %53, 1
  %55 = sext i32 %54 to i64
  %56 = call i8* @strncpy(i8* %51, i8* %52, i64 %55) #6
  %57 = getelementptr inbounds [20 x i8], [20 x i8]* %4, i64 0, i64 0
  %58 = call i32 (i8*, ...) @printf(i8* getelementptr inbounds ([3 x i8], [3 x i8]* @.str.1, i64 0, i64 0), i8* %57)
  %59 = getelementptr inbounds [20 x i8], [20 x i8]* %3, i64 0, i64 0
  %60 = call i32 (i8*, ...) @printf(i8* getelementptr inbounds ([3 x i8], [3 x i8]* @.str.1, i64 0, i64 0), i8* %59)
  %61 = load i8*, i8** %6, align 8
  %62 = getelementptr inbounds i8, i8* %61, i64 1
  %63 = call i32 (i8*, ...) @printf(i8* getelementptr inbounds ([4 x i8], [4 x i8]* @.str.2, i64 0, i64 0), i8* %62)
  br label %11

64:                                               ; preds = %11
  ret i32 0
}

; Function Attrs: argmemonly nounwind willreturn
declare void @llvm.memset.p0i8.i64(i8* nocapture writeonly, i8, i64, i1 immarg) #1

declare dso_local i32 @__isoc99_scanf(i8*, ...) #2

; Function Attrs: nounwind readonly
declare dso_local i64 @strlen(i8*) #3

; Function Attrs: nounwind
declare dso_local i8* @strncpy(i8*, i8*, i64) #4

declare dso_local i32 @printf(i8*, ...) #2


!llvm.module.flags = !{!0}
!llvm.ident = !{!1}

!0 = !{i32 1, !"wchar_size", i32 4}
!1 = !{!"clang version 10.0.0-4ubuntu1 "}
